; Function Attrs: nounwind uwtable
define internal noundef i32 @batch_unordered_packed(ptr noundef %0, ptr noundef %1, i32 noundef %2, ptr noundef readonly captures(none) %3) #0 {
  %5 = tail call i64 @nth_packed_object_offset(ptr noundef %1, i32 noundef %2) #14
  %6 = getelementptr inbounds nuw i8, ptr %3, i64 16
  %7 = load ptr, ptr %6, align 8, !tbaa !69
  %8 = tail call i32 @oidset_insert(ptr noundef %7, ptr noundef %0) #14
  %.not.i = icmp eq i32 %8, 0
  br i1 %.not.i, label %9, label %batch_unordered_object.exit

9:                                                ; preds = %4
  %10 = getelementptr inbounds nuw i8, ptr %3, i64 8
  %11 = load ptr, ptr %10, align 8, !tbaa !66
  tail call void @llvm.memcpy.p0.p0.i64(ptr noundef nonnull align 4 dereferenceable(32) %11, ptr noundef nonnull readonly align 4 dereferenceable(32) %0, i64 32, i1 false)
  %12 = getelementptr inbounds nuw i8, ptr %0, i64 32
  %13 = load i32, ptr %12, align 4, !tbaa !101
  %14 = getelementptr inbounds nuw i8, ptr %11, i64 32
  store i32 %13, ptr %14, align 4, !tbaa !101
  %15 = getelementptr inbounds nuw i8, ptr %3, i64 24
  %16 = load ptr, ptr %15, align 8, !tbaa !67
  %17 = load ptr, ptr %3, align 8, !tbaa !61
  %18 = load ptr, ptr %10, align 8, !tbaa !66
  tail call fastcc void @batch_object_write(ptr noundef null, ptr noundef %16, ptr noundef %17, ptr noundef %18, ptr noundef %1, i64 noundef %5)
  br label %batch_unordered_object.exit

batch_unordered_object.exit:                      ; preds = %4, %9
  ret i32 0
}